target datalayout = "e-m:e-p270:32:32-p271:32:32-p272:64:64-i64:64-i128:128-f80:128-n8:16:32:64-S128"
target triple = "x86_64-pc-linux-gnu"

; Function Attrs: inlinehint nounwind uwtable
define internal float @clamp_simd(float noundef %0) #2 {
  %2 = alloca float, align 4
  store float %0, ptr %2, align 4, !tbaa !45
  %3 = load float, ptr %2, align 4, !tbaa !45
  %4 = call reassoc nsz arcp contract afn float @llvm.maxnum.f32(float %3, float 0.000000e+00)
  %5 = call reassoc nsz arcp contract afn float @llvm.minnum.f32(float %4, float 1.000000e+00)
  ret float %5
}

; Function Attrs: nounwind uwtable
define internal void @_blend_difference(ptr noundef %0, ptr noundef %1, ptr noundef %2, ptr noalias noundef %3, i64 noundef %4) #0 {
  %6 = alloca ptr, align 8
  %7 = alloca ptr, align 8
  %8 = alloca ptr, align 8
  %9 = alloca ptr, align 8
  %10 = alloca i64, align 8
  %11 = alloca i64, align 8
  %12 = alloca i64, align 8
  %13 = alloca i32, align 4
  %14 = alloca float, align 4
  %15 = alloca i32, align 4
  store ptr %0, ptr %6, align 8, !tbaa !11
  store ptr %1, ptr %7, align 8, !tbaa !11
  store ptr %2, ptr %8, align 8, !tbaa !11
  store ptr %3, ptr %9, align 8, !tbaa !11
  store i64 %4, ptr %10, align 8, !tbaa !43
  call void @llvm.lifetime.start.p0(i64 8, ptr %11) #8
  store i64 0, ptr %11, align 8, !tbaa !43
  call void @llvm.lifetime.start.p0(i64 8, ptr %12) #8
  store i64 0, ptr %12, align 8, !tbaa !43
  br label %16

16:                                               ; preds = %76, %5
  %17 = load i64, ptr %11, align 8, !tbaa !43
  %18 = load i64, ptr %10, align 8, !tbaa !43
  %19 = icmp ult i64 %17, %18
  br i1 %19, label %21, label %20

20:                                               ; preds = %16
  store i32 2, ptr %13, align 4
  call void @llvm.lifetime.end.p0(i64 8, ptr %12) #8
  call void @llvm.lifetime.end.p0(i64 8, ptr %11) #8
  br label %81

21:                                               ; preds = %16
  call void @llvm.lifetime.start.p0(i64 4, ptr %14) #8
  %22 = load ptr, ptr %9, align 8, !tbaa !11
  %23 = load i64, ptr %11, align 8, !tbaa !43
  %24 = getelementptr inbounds nuw float, ptr %22, i64 %23
  %25 = load float, ptr %24, align 4, !tbaa !45
  store float %25, ptr %14, align 4, !tbaa !45
  call void @llvm.lifetime.start.p0(i64 4, ptr %15) #8
  store i32 0, ptr %15, align 4, !tbaa !36
  br label %26

26:                                               ; preds = %67, %21
  %27 = load i32, ptr %15, align 4, !tbaa !36
  %28 = icmp slt i32 %27, 3
  br i1 %28, label %30, label %29

29:                                               ; preds = %26
  store i32 5, ptr %13, align 4
  call void @llvm.lifetime.end.p0(i64 4, ptr %15) #8
  br label %70

30:                                               ; preds = %26
  %31 = load ptr, ptr %6, align 8, !tbaa !11
  %32 = load i64, ptr %12, align 8, !tbaa !43
  %33 = load i32, ptr %15, align 4, !tbaa !36
  %34 = sext i32 %33 to i64
  %35 = add i64 %32, %34
  %36 = getelementptr inbounds nuw float, ptr %31, i64 %35
  %37 = load float, ptr %36, align 4, !tbaa !45
  %38 = load float, ptr %14, align 4, !tbaa !45
  %39 = fsub reassoc nsz arcp contract afn float 1.000000e+00, %38
  %40 = fmul reassoc nsz arcp contract afn float %37, %39
  %41 = load ptr, ptr %6, align 8, !tbaa !11
  %42 = load i64, ptr %12, align 8, !tbaa !43
  %43 = load i32, ptr %15, align 4, !tbaa !36
  %44 = sext i32 %43 to i64
  %45 = add i64 %42, %44
  %46 = getelementptr inbounds nuw float, ptr %41, i64 %45
  %47 = load float, ptr %46, align 4, !tbaa !45
  %48 = load ptr, ptr %7, align 8, !tbaa !11
  %49 = load i64, ptr %12, align 8, !tbaa !43
  %50 = load i32, ptr %15, align 4, !tbaa !36
  %51 = sext i32 %50 to i64
  %52 = add i64 %49, %51
  %53 = getelementptr inbounds nuw float, ptr %48, i64 %52
  %54 = load float, ptr %53, align 4, !tbaa !45
  %55 = fsub reassoc nsz arcp contract afn float %47, %54
  %56 = call reassoc nsz arcp contract afn float @llvm.fabs.f32(float %55)
  %57 = load float, ptr %14, align 4, !tbaa !45
  %58 = fmul reassoc nsz arcp contract afn float %56, %57
  %59 = fadd reassoc nsz arcp contract afn float %40, %58
  %60 = call reassoc nsz arcp contract afn float @clamp_simd(float noundef %59)
  %61 = load ptr, ptr %8, align 8, !tbaa !11
  %62 = load i64, ptr %12, align 8, !tbaa !43
  %63 = load i32, ptr %15, align 4, !tbaa !36
  %64 = sext i32 %63 to i64
  %65 = add i64 %62, %64
  %66 = getelementptr inbounds nuw float, ptr %61, i64 %65
  store float %60, ptr %66, align 4, !tbaa !45
  br label %67

67:                                               ; preds = %30
  %68 = load i32, ptr %15, align 4, !tbaa !36
  %69 = add nsw i32 %68, 1
  store i32 %69, ptr %15, align 4, !tbaa !36
  br label %26

70:                                               ; preds = %29
  %71 = load float, ptr %14, align 4, !tbaa !45
  %72 = load ptr, ptr %8, align 8, !tbaa !11
  %73 = load i64, ptr %12, align 8, !tbaa !43
  %74 = add i64 %73, 3
  %75 = getelementptr inbounds nuw float, ptr %72, i64 %74
  store float %71, ptr %75, align 4, !tbaa !45
  call void @llvm.lifetime.end.p0(i64 4, ptr %14) #8
  br label %76

76:                                               ; preds = %70
  %77 = load i64, ptr %11, align 8, !tbaa !43
  %78 = add i64 %77, 1
  store i64 %78, ptr %11, align 8, !tbaa !43
  %79 = load i64, ptr %12, align 8, !tbaa !43
  %80 = add i64 %79, 4
  store i64 %80, ptr %12, align 8, !tbaa !43
  br label %16

81:                                               ; preds = %20
  ret void
}